target datalayout = "e-m:e-p270:32:32-p271:32:32-p272:64:64-i64:64-i128:128-f80:128-n8:16:32:64-S128"
target triple = "x86_64-pc-linux-gnu"

@_ZN32pxrInternal_v0_24__pxrReserved__L13_IndentStringE = internal global ptr @.str.34, align 8

; Function Attrs: mustprogress uwtable
define void @_ZN32pxrInternal_v0_24__pxrReserved__17Sdf_FileIOUtility4PutsERNS_14Sdf_TextOutputEmRKNSt7__cxx1112basic_stringIcSt11char_traitsIcESaIcEEE(ptr noundef nonnull align 8 dereferenceable(48) %0, i64 noundef %1, ptr noundef nonnull align 8 dereferenceable(32) %2) #0 align 2 {
  %4 = alloca ptr, align 8
  %5 = alloca i64, align 8
  %6 = alloca ptr, align 8
  %7 = alloca i64, align 8
  store ptr %0, ptr %4, align 8
  store i64 %1, ptr %5, align 8
  store ptr %2, ptr %6, align 8
  store i64 0, ptr %7, align 8
  br label %8

8:                                                ; preds = %16, %3
  %9 = load i64, ptr %7, align 8
  %10 = load i64, ptr %5, align 8
  %11 = icmp ult i64 %9, %10
  br i1 %11, label %12, label %19

12:                                               ; preds = %8
  %13 = load ptr, ptr %4, align 8
  %14 = load ptr, ptr @_ZN32pxrInternal_v0_24__pxrReserved__L13_IndentStringE, align 8
  %15 = call noundef zeroext i1 @_ZN32pxrInternal_v0_24__pxrReserved__14Sdf_TextOutput5WriteEPKc(ptr noundef nonnull align 8 dereferenceable(48) %13, ptr noundef %14)
  br label %16

16:                                               ; preds = %12
  %17 = load i64, ptr %7, align 8
  %18 = add i64 %17, 1
  store i64 %18, ptr %7, align 8
  br label %8, !llvm.loop !4

19:                                               ; preds = %8
  %20 = load ptr, ptr %4, align 8
  %21 = load ptr, ptr %6, align 8
  %22 = call noundef zeroext i1 @_ZN32pxrInternal_v0_24__pxrReserved__14Sdf_TextOutput5WriteERKNSt7__cxx1112basic_stringIcSt11char_traitsIcESaIcEEE(ptr noundef nonnull align 8 dereferenceable(48) %20, ptr noundef nonnull align 8 dereferenceable(32) %21)
  ret void
}